target datalayout = "e-m:e-p270:32:32-p271:32:32-p272:64:64-i64:64-i128:128-f80:128-n8:16:32:64-S128"
target triple = "x86_64-pc-linux-gnu"

%struct.PROC_HDR = type { ptr, ptr, ptr, ptr, i32, %struct.dlist_head, %struct.dlist_head, %struct.dlist_head, %struct.dlist_head, %struct.pg_atomic_uint32, %struct.pg_atomic_uint32, i32, i32, i32, i32 }
%struct.dlist_head = type { %struct.dlist_node }
%struct.dlist_node = type { ptr, ptr }
%struct.pg_atomic_uint32 = type { i32 }
%struct.PGPROC = type { %struct.dlist_node, ptr, ptr, i32, %struct.Latch, i32, i32, i32, i32, %struct.anon, i32, i32, i32, i8, i8, i8, i8, %struct.proclist_node, %struct.proclist_node, ptr, ptr, i32, i32, %struct.pg_atomic_uint64, i32, i8, i64, i32, %struct.dlist_node, [16 x %struct.dlist_head], %struct.XidCacheStatus, %struct.XidCache, i8, %struct.pg_atomic_uint32, i32, i32, i8, %struct.pg_atomic_uint32, i32, i32, i64, i64, %struct.LWLock, ptr, ptr, i8, i32, ptr, %struct.dlist_head, %struct.dlist_node }
%struct.Latch = type { i32, i32, i8, i32 }
%struct.anon = type { i32, i32 }
%struct.proclist_node = type { i32, i32 }
%struct.pg_atomic_uint64 = type { i64 }
%struct.XidCacheStatus = type { i8, i8 }
%struct.XidCache = type { [64 x i32] }
%struct.LWLock = type { i16, %struct.pg_atomic_uint32, %struct.proclist_head }
%struct.proclist_head = type { i32, i32 }
%union.LWLockPadded = type { %struct.LWLock, [112 x i8] }

@MyProc = dso_local global ptr null, align 8
@ProcGlobal = dso_local global ptr null, align 8
@ProcStructLock = internal global ptr null, align 8
@.str.2 = private unnamed_addr constant [7 x i8] c"proc.c\00", align 1
@MyProcNumber = external global i32, align 4
@MainLWLockArray = external global ptr, align 8
@.str.21 = private unnamed_addr constant [35 x i8] c"ProcKill() called in child process\00", align 1
@__func__.ProcKill = private unnamed_addr constant [9 x i8] c"ProcKill\00", align 1
@AutovacuumLauncherPid = external global i32, align 4

; Function Attrs: inlinehint nounwind uwtable
define internal void @dlist_init(ptr noundef %0) #3 {
  %2 = alloca ptr, align 8
  store ptr %0, ptr %2, align 8
  %3 = load ptr, ptr %2, align 8
  %4 = getelementptr inbounds nuw %struct.dlist_head, ptr %3, i32 0, i32 0
  %5 = load ptr, ptr %2, align 8
  %6 = getelementptr inbounds nuw %struct.dlist_head, ptr %5, i32 0, i32 0
  %7 = getelementptr inbounds nuw %struct.dlist_node, ptr %6, i32 0, i32 0
  store ptr %4, ptr %7, align 8
  %8 = load ptr, ptr %2, align 8
  %9 = getelementptr inbounds nuw %struct.dlist_head, ptr %8, i32 0, i32 0
  %10 = getelementptr inbounds nuw %struct.dlist_node, ptr %9, i32 0, i32 1
  store ptr %4, ptr %10, align 8
  ret void
}

; Function Attrs: inlinehint nounwind uwtable
define internal void @dlist_push_tail(ptr noundef %0, ptr noundef %1) #3 {
  %3 = alloca ptr, align 8
  %4 = alloca ptr, align 8
  store ptr %0, ptr %3, align 8
  store ptr %1, ptr %4, align 8
  %5 = load ptr, ptr %3, align 8
  %6 = getelementptr inbounds nuw %struct.dlist_head, ptr %5, i32 0, i32 0
  %7 = getelementptr inbounds nuw %struct.dlist_node, ptr %6, i32 0, i32 1
  %8 = load ptr, ptr %7, align 8
  %9 = icmp eq ptr %8, null
  br i1 %9, label %10, label %12

10:                                               ; preds = %2
  %11 = load ptr, ptr %3, align 8
  call void @dlist_init(ptr noundef %11)
  br label %12

12:                                               ; preds = %10, %2
  %13 = load ptr, ptr %3, align 8
  %14 = getelementptr inbounds nuw %struct.dlist_head, ptr %13, i32 0, i32 0
  %15 = load ptr, ptr %4, align 8
  %16 = getelementptr inbounds nuw %struct.dlist_node, ptr %15, i32 0, i32 1
  store ptr %14, ptr %16, align 8
  %17 = load ptr, ptr %3, align 8
  %18 = getelementptr inbounds nuw %struct.dlist_head, ptr %17, i32 0, i32 0
  %19 = getelementptr inbounds nuw %struct.dlist_node, ptr %18, i32 0, i32 0
  %20 = load ptr, ptr %19, align 8
  %21 = load ptr, ptr %4, align 8
  %22 = getelementptr inbounds nuw %struct.dlist_node, ptr %21, i32 0, i32 0
  store ptr %20, ptr %22, align 8
  %23 = load ptr, ptr %4, align 8
  %24 = load ptr, ptr %4, align 8
  %25 = getelementptr inbounds nuw %struct.dlist_node, ptr %24, i32 0, i32 0
  %26 = load ptr, ptr %25, align 8
  %27 = getelementptr inbounds nuw %struct.dlist_node, ptr %26, i32 0, i32 1
  store ptr %23, ptr %27, align 8
  %28 = load ptr, ptr %4, align 8
  %29 = load ptr, ptr %3, align 8
  %30 = getelementptr inbounds nuw %struct.dlist_head, ptr %29, i32 0, i32 0
  %31 = getelementptr inbounds nuw %struct.dlist_node, ptr %30, i32 0, i32 0
  store ptr %28, ptr %31, align 8
  ret void
}

; Function Attrs: inlinehint nounwind uwtable
define internal void @dlist_push_head(ptr noundef %0, ptr noundef %1) #3 {
  %3 = alloca ptr, align 8
  %4 = alloca ptr, align 8
  store ptr %0, ptr %3, align 8
  store ptr %1, ptr %4, align 8
  %5 = load ptr, ptr %3, align 8
  %6 = getelementptr inbounds nuw %struct.dlist_head, ptr %5, i32 0, i32 0
  %7 = getelementptr inbounds nuw %struct.dlist_node, ptr %6, i32 0, i32 1
  %8 = load ptr, ptr %7, align 8
  %9 = icmp eq ptr %8, null
  br i1 %9, label %10, label %12

10:                                               ; preds = %2
  %11 = load ptr, ptr %3, align 8
  call void @dlist_init(ptr noundef %11)
  br label %12

12:                                               ; preds = %10, %2
  %13 = load ptr, ptr %3, align 8
  %14 = getelementptr inbounds nuw %struct.dlist_head, ptr %13, i32 0, i32 0
  %15 = getelementptr inbounds nuw %struct.dlist_node, ptr %14, i32 0, i32 1
  %16 = load ptr, ptr %15, align 8
  %17 = load ptr, ptr %4, align 8
  %18 = getelementptr inbounds nuw %struct.dlist_node, ptr %17, i32 0, i32 1
  store ptr %16, ptr %18, align 8
  %19 = load ptr, ptr %3, align 8
  %20 = getelementptr inbounds nuw %struct.dlist_head, ptr %19, i32 0, i32 0
  %21 = load ptr, ptr %4, align 8
  %22 = getelementptr inbounds nuw %struct.dlist_node, ptr %21, i32 0, i32 0
  store ptr %20, ptr %22, align 8
  %23 = load ptr, ptr %4, align 8
  %24 = load ptr, ptr %4, align 8
  %25 = getelementptr inbounds nuw %struct.dlist_node, ptr %24, i32 0, i32 1
  %26 = load ptr, ptr %25, align 8
  %27 = getelementptr inbounds nuw %struct.dlist_node, ptr %26, i32 0, i32 0
  store ptr %23, ptr %27, align 8
  %28 = load ptr, ptr %4, align 8
  %29 = load ptr, ptr %3, align 8
  %30 = getelementptr inbounds nuw %struct.dlist_head, ptr %29, i32 0, i32 0
  %31 = getelementptr inbounds nuw %struct.dlist_node, ptr %30, i32 0, i32 1
  store ptr %28, ptr %31, align 8
  ret void
}

; Function Attrs: inlinehint nounwind uwtable
define internal i32 @tas(ptr noundef %0) #3 {
  %2 = alloca ptr, align 8
  %3 = alloca i8, align 1
  store ptr %0, ptr %2, align 8
  call void @llvm.lifetime.start.p0(i64 1, ptr %3) #10
  store i8 1, ptr %3, align 1
  %4 = load i8, ptr %3, align 1
  %5 = load ptr, ptr %2, align 8
  %6 = call i8 asm sideeffect "\09lock\09\09\09\0A\09xchgb\09$0,$1\09\0A", "=q,=*m,0,*m,~{memory},~{cc},~{dirflag},~{fpsr},~{flags}"(ptr elementtype(i8) %5, i8 %4, ptr elementtype(i8) %5) #10, !srcloc !17
  store i8 %6, ptr %3, align 1
  %7 = load i8, ptr %3, align 1
  %8 = zext i8 %7 to i32
  call void @llvm.lifetime.end.p0(i64 1, ptr %3) #10
  ret i32 %8
}

; Function Attrs: inlinehint nounwind uwtable
define internal zeroext i1 @dlist_is_empty(ptr noundef %0) #3 {
  %2 = alloca ptr, align 8
  store ptr %0, ptr %2, align 8
  %3 = load ptr, ptr %2, align 8
  %4 = getelementptr inbounds nuw %struct.dlist_head, ptr %3, i32 0, i32 0
  %5 = getelementptr inbounds nuw %struct.dlist_node, ptr %4, i32 0, i32 1
  %6 = load ptr, ptr %5, align 8
  %7 = icmp eq ptr %6, null
  br i1 %7, label %16, label %8

8:                                                ; preds = %1
  %9 = load ptr, ptr %2, align 8
  %10 = getelementptr inbounds nuw %struct.dlist_head, ptr %9, i32 0, i32 0
  %11 = getelementptr inbounds nuw %struct.dlist_node, ptr %10, i32 0, i32 1
  %12 = load ptr, ptr %11, align 8
  %13 = load ptr, ptr %2, align 8
  %14 = getelementptr inbounds nuw %struct.dlist_head, ptr %13, i32 0, i32 0
  %15 = icmp eq ptr %12, %14
  br label %16

16:                                               ; preds = %8, %1
  %17 = phi i1 [ true, %1 ], [ %15, %8 ]
  ret i1 %17
}

; Function Attrs: inlinehint nounwind uwtable
define internal void @dlist_delete(ptr noundef %0) #3 {
  %2 = alloca ptr, align 8
  store ptr %0, ptr %2, align 8
  %3 = load ptr, ptr %2, align 8
  %4 = getelementptr inbounds nuw %struct.dlist_node, ptr %3, i32 0, i32 1
  %5 = load ptr, ptr %4, align 8
  %6 = load ptr, ptr %2, align 8
  %7 = getelementptr inbounds nuw %struct.dlist_node, ptr %6, i32 0, i32 0
  %8 = load ptr, ptr %7, align 8
  %9 = getelementptr inbounds nuw %struct.dlist_node, ptr %8, i32 0, i32 1
  store ptr %5, ptr %9, align 8
  %10 = load ptr, ptr %2, align 8
  %11 = getelementptr inbounds nuw %struct.dlist_node, ptr %10, i32 0, i32 0
  %12 = load ptr, ptr %11, align 8
  %13 = load ptr, ptr %2, align 8
  %14 = getelementptr inbounds nuw %struct.dlist_node, ptr %13, i32 0, i32 1
  %15 = load ptr, ptr %14, align 8
  %16 = getelementptr inbounds nuw %struct.dlist_node, ptr %15, i32 0, i32 0
  store ptr %12, ptr %16, align 8
  ret void
}

; Function Attrs: nounwind uwtable
define internal void @ProcKill(i32 noundef %0, i64 noundef %1) #0 {
  %3 = alloca i32, align 4
  %4 = alloca i64, align 8
  %5 = alloca ptr, align 8
  %6 = alloca ptr, align 8
  %7 = alloca ptr, align 8
  %8 = alloca ptr, align 8
  store i32 %0, ptr %3, align 4
  store i64 %1, ptr %4, align 8
  call void @llvm.lifetime.start.p0(i64 8, ptr %5) #10
  call void @llvm.lifetime.start.p0(i64 8, ptr %6) #10
  %9 = load ptr, ptr @MyProc, align 8
  %10 = getelementptr inbounds nuw %struct.PGPROC, ptr %9, i32 0, i32 7
  %11 = load i32, ptr %10, align 4
  %12 = call i32 @getpid() #10
  %13 = icmp ne i32 %11, %12
  br i1 %13, label %14, label %25

14:                                               ; preds = %2
  br label %15

15:                                               ; preds = %14
  br i1 true, label %16, label %18

16:                                               ; preds = %15
  %17 = call zeroext i1 @errstart_cold(i32 noundef 23, ptr noundef null) #11
  br i1 %17, label %20, label %22

18:                                               ; preds = %15
  %19 = call zeroext i1 @errstart(i32 noundef 23, ptr noundef null)
  br i1 %19, label %20, label %22

20:                                               ; preds = %18, %16
  %21 = call i32 (ptr, ...) @errmsg_internal(ptr noundef @.str.21)
  call void @errfinish(ptr noundef @.str.2, i32 noundef 877, ptr noundef @__func__.ProcKill)
  br label %22

22:                                               ; preds = %20, %18, %16
  unreachable

23:                                               ; No predecessors!
  br label %24

24:                                               ; preds = %23
  br label %25

25:                                               ; preds = %24, %2
  call void @SyncRepCleanupAtProcExit()
  call void @LWLockReleaseAll()
  %26 = call zeroext i1 @ConditionVariableCancelSleep()
  %27 = load ptr, ptr @MyProc, align 8
  %28 = getelementptr inbounds nuw %struct.PGPROC, ptr %27, i32 0, i32 47
  %29 = load ptr, ptr %28, align 8
  %30 = icmp ne ptr %29, null
  br i1 %30, label %31, label %91

31:                                               ; preds = %25
  call void @llvm.lifetime.start.p0(i64 8, ptr %7) #10
  %32 = load ptr, ptr @MyProc, align 8
  %33 = getelementptr inbounds nuw %struct.PGPROC, ptr %32, i32 0, i32 47
  %34 = load ptr, ptr %33, align 8
  store ptr %34, ptr %7, align 8
  call void @llvm.lifetime.start.p0(i64 8, ptr %8) #10
  %35 = load ptr, ptr @MainLWLockArray, align 8
  %36 = load ptr, ptr %7, align 8
  %37 = load ptr, ptr @ProcGlobal, align 8
  %38 = getelementptr inbounds nuw %struct.PROC_HDR, ptr %37, i32 0, i32 0
  %39 = load ptr, ptr %38, align 8
  %40 = getelementptr inbounds %struct.PGPROC, ptr %39, i64 0
  %41 = ptrtoint ptr %36 to i64
  %42 = ptrtoint ptr %40 to i64
  %43 = sub i64 %41, %42
  %44 = sdiv exact i64 %43, 832
  %45 = srem i64 %44, 16
  %46 = add i64 181, %45
  %47 = getelementptr inbounds %union.LWLockPadded, ptr %35, i64 %46
  store ptr %47, ptr %8, align 8
  %48 = load ptr, ptr %8, align 8
  %49 = call zeroext i1 @LWLockAcquire(ptr noundef %48, i32 noundef 0)
  %50 = load ptr, ptr @MyProc, align 8
  %51 = getelementptr inbounds nuw %struct.PGPROC, ptr %50, i32 0, i32 49
  call void @dlist_delete(ptr noundef %51)
  %52 = load ptr, ptr %7, align 8
  %53 = getelementptr inbounds nuw %struct.PGPROC, ptr %52, i32 0, i32 48
  %54 = call zeroext i1 @dlist_is_empty(ptr noundef %53)
  br i1 %54, label %55, label %81

55:                                               ; preds = %31
  %56 = load ptr, ptr %7, align 8
  %57 = getelementptr inbounds nuw %struct.PGPROC, ptr %56, i32 0, i32 47
  store ptr null, ptr %57, align 8
  %58 = load ptr, ptr %7, align 8
  %59 = load ptr, ptr @MyProc, align 8
  %60 = icmp ne ptr %58, %59
  br i1 %60, label %61, label %80

61:                                               ; preds = %55
  %62 = load ptr, ptr %7, align 8
  %63 = getelementptr inbounds nuw %struct.PGPROC, ptr %62, i32 0, i32 1
  %64 = load ptr, ptr %63, align 8
  store ptr %64, ptr %6, align 8
  %65 = load ptr, ptr @ProcStructLock, align 8
  %66 = call i32 @tas(ptr noundef %65)
  %67 = icmp ne i32 %66, 0
  br i1 %67, label %68, label %71

68:                                               ; preds = %61
  %69 = load ptr, ptr @ProcStructLock, align 8
  %70 = call i32 @s_lock(ptr noundef %69, ptr noundef @.str.2, i32 noundef 924, ptr noundef @__func__.ProcKill)
  br label %72

71:                                               ; preds = %61
  br label %72

72:                                               ; preds = %71, %68
  %73 = load ptr, ptr %6, align 8
  %74 = load ptr, ptr %7, align 8
  %75 = getelementptr inbounds nuw %struct.PGPROC, ptr %74, i32 0, i32 0
  call void @dlist_push_head(ptr noundef %73, ptr noundef %75)
  br label %76

76:                                               ; preds = %72
  call void asm sideeffect "", "~{memory},~{dirflag},~{fpsr},~{flags}"() #10, !srcloc !18
  %77 = load ptr, ptr @ProcStructLock, align 8
  store i8 0, ptr %77, align 1
  br label %78

78:                                               ; preds = %76
  br label %79

79:                                               ; preds = %78
  br label %80

80:                                               ; preds = %79, %55
  br label %89

81:                                               ; preds = %31
  %82 = load ptr, ptr %7, align 8
  %83 = load ptr, ptr @MyProc, align 8
  %84 = icmp ne ptr %82, %83
  br i1 %84, label %85, label %88

85:                                               ; preds = %81
  %86 = load ptr, ptr @MyProc, align 8
  %87 = getelementptr inbounds nuw %struct.PGPROC, ptr %86, i32 0, i32 47
  store ptr null, ptr %87, align 8
  br label %88

88:                                               ; preds = %85, %81
  br label %89

89:                                               ; preds = %88, %80
  %90 = load ptr, ptr %8, align 8
  call void @LWLockRelease(ptr noundef %90)
  call void @llvm.lifetime.end.p0(i64 8, ptr %8) #10
  call void @llvm.lifetime.end.p0(i64 8, ptr %7) #10
  br label %91

91:                                               ; preds = %89, %25
  call void @SwitchBackToLocalLatch()
  call void @pgstat_reset_wait_event_storage()
  %92 = load ptr, ptr @MyProc, align 8
  store ptr %92, ptr %5, align 8
  store ptr null, ptr @MyProc, align 8
  store i32 -1, ptr @MyProcNumber, align 4
  %93 = load ptr, ptr %5, align 8
  %94 = getelementptr inbounds nuw %struct.PGPROC, ptr %93, i32 0, i32 4
  call void @DisownLatch(ptr noundef %94)
  %95 = load ptr, ptr %5, align 8
  %96 = getelementptr inbounds nuw %struct.PGPROC, ptr %95, i32 0, i32 7
  store i32 0, ptr %96, align 4
  %97 = load ptr, ptr %5, align 8
  %98 = getelementptr inbounds nuw %struct.PGPROC, ptr %97, i32 0, i32 9
  %99 = getelementptr inbounds nuw %struct.anon, ptr %98, i32 0, i32 0
  store i32 -1, ptr %99, align 4
  %100 = load ptr, ptr %5, align 8
  %101 = getelementptr inbounds nuw %struct.PGPROC, ptr %100, i32 0, i32 9
  %102 = getelementptr inbounds nuw %struct.anon, ptr %101, i32 0, i32 1
  store i32 0, ptr %102, align 4
  %103 = load ptr, ptr %5, align 8
  %104 = getelementptr inbounds nuw %struct.PGPROC, ptr %103, i32 0, i32 1
  %105 = load ptr, ptr %104, align 8
  store ptr %105, ptr %6, align 8
  %106 = load ptr, ptr @ProcStructLock, align 8
  %107 = call i32 @tas(ptr noundef %106)
  %108 = icmp ne i32 %107, 0
  br i1 %108, label %109, label %112

109:                                              ; preds = %91
  %110 = load ptr, ptr @ProcStructLock, align 8
  %111 = call i32 @s_lock(ptr noundef %110, ptr noundef @.str.2, i32 noundef 957, ptr noundef @__func__.ProcKill)
  br label %113

112:                                              ; preds = %91
  br label %113

113:                                              ; preds = %112, %109
  %114 = load ptr, ptr %5, align 8
  %115 = getelementptr inbounds nuw %struct.PGPROC, ptr %114, i32 0, i32 47
  %116 = load ptr, ptr %115, align 8
  %117 = icmp eq ptr %116, null
  br i1 %117, label %118, label %122

118:                                              ; preds = %113
  %119 = load ptr, ptr %6, align 8
  %120 = load ptr, ptr %5, align 8
  %121 = getelementptr inbounds nuw %struct.PGPROC, ptr %120, i32 0, i32 0
  call void @dlist_push_tail(ptr noundef %119, ptr noundef %121)
  br label %122

122:                                              ; preds = %118, %113
  %123 = load ptr, ptr @ProcGlobal, align 8
  %124 = getelementptr inbounds nuw %struct.PROC_HDR, ptr %123, i32 0, i32 13
  %125 = load i32, ptr %124, align 8
  %126 = call i32 @update_spins_per_delay(i32 noundef %125)
  %127 = load ptr, ptr @ProcGlobal, align 8
  %128 = getelementptr inbounds nuw %struct.PROC_HDR, ptr %127, i32 0, i32 13
  store i32 %126, ptr %128, align 8
  br label %129

129:                                              ; preds = %122
  call void asm sideeffect "", "~{memory},~{dirflag},~{fpsr},~{flags}"() #10, !srcloc !19
  %130 = load ptr, ptr @ProcStructLock, align 8
  store i8 0, ptr %130, align 1
  br label %131

131:                                              ; preds = %129
  br label %132

132:                                              ; preds = %131
  %133 = load i32, ptr @AutovacuumLauncherPid, align 4
  %134 = icmp ne i32 %133, 0
  br i1 %134, label %135, label %138

135:                                              ; preds = %132
  %136 = load i32, ptr @AutovacuumLauncherPid, align 4
  %137 = call i32 @kill(i32 noundef %136, i32 noundef 12) #10
  br label %138

138:                                              ; preds = %135, %132
  call void @llvm.lifetime.end.p0(i64 8, ptr %6) #10
  call void @llvm.lifetime.end.p0(i64 8, ptr %5) #10
  ret void
}