; Function Attrs: nounwind uwtable
define internal void @ProcKill(i32 %0, i64 %1) #0 {
  %3 = load ptr, ptr @MyProc, align 8
  %4 = getelementptr inbounds nuw i8, ptr %3, i64 60
  %5 = load i32, ptr %4, align 4
  %6 = tail call i32 @getpid() #14
  %.not = icmp eq i32 %5, %6
  br i1 %.not, label %10, label %7

7:                                                ; preds = %2
  %8 = tail call zeroext i1 @errstart_cold(i32 noundef 23, ptr noundef null) #15
  tail call void @llvm.assume(i1 %8)
  %9 = tail call i32 (ptr, ...) @errmsg_internal(ptr noundef nonnull @.str.21) #14
  tail call void @errfinish(ptr noundef nonnull @.str.2, i32 noundef 877, ptr noundef nonnull @__func__.ProcKill) #14
  unreachable

10:                                               ; preds = %2
  tail call void @SyncRepCleanupAtProcExit() #14
  tail call void @LWLockReleaseAll() #14
  %11 = tail call zeroext i1 @ConditionVariableCancelSleep() #14
  %12 = load ptr, ptr @MyProc, align 8
  %13 = getelementptr inbounds nuw i8, ptr %12, i64 792
  %14 = load ptr, ptr %13, align 8
  %.not20 = icmp eq ptr %14, null
  br i1 %.not20, label %63, label %15

15:                                               ; preds = %10
  %16 = load ptr, ptr @MainLWLockArray, align 8
  %17 = load ptr, ptr @ProcGlobal, align 8
  %18 = load ptr, ptr %17, align 8
  %19 = ptrtoint ptr %14 to i64
  %20 = ptrtoint ptr %18 to i64
  %21 = sub i64 %19, %20
  %22 = sdiv exact i64 %21, 832
  %23 = srem i64 %22, 16
  %24 = getelementptr %union.LWLockPadded, ptr %16, i64 %23
  %25 = getelementptr i8, ptr %24, i64 23168
  %26 = tail call zeroext i1 @LWLockAcquire(ptr noundef %25, i32 noundef 0) #14
  %27 = load ptr, ptr @MyProc, align 8
  %28 = getelementptr inbounds nuw i8, ptr %27, i64 816
  %29 = getelementptr inbounds nuw i8, ptr %27, i64 824
  %30 = load ptr, ptr %29, align 8
  %31 = load ptr, ptr %28, align 8
  %32 = getelementptr inbounds nuw i8, ptr %31, i64 8
  store ptr %30, ptr %32, align 8
  %33 = load ptr, ptr %28, align 8
  store ptr %33, ptr %30, align 8
  %34 = getelementptr inbounds nuw i8, ptr %14, i64 800
  %35 = getelementptr inbounds nuw i8, ptr %14, i64 808
  %36 = load ptr, ptr %35, align 8
  %37 = icmp eq ptr %36, null
  %38 = icmp eq ptr %36, %34
  %spec.select.i = or i1 %37, %38
  br i1 %spec.select.i, label %39, label %58

39:                                               ; preds = %15
  %40 = getelementptr inbounds nuw i8, ptr %14, i64 792
  store ptr null, ptr %40, align 8
  %41 = load ptr, ptr @MyProc, align 8
  %.not22 = icmp eq ptr %14, %41
  br i1 %.not22, label %62, label %42

42:                                               ; preds = %39
  %43 = getelementptr inbounds nuw i8, ptr %14, i64 16
  %44 = load ptr, ptr %43, align 8
  %45 = load ptr, ptr @ProcStructLock, align 8
  %46 = tail call i8 asm sideeffect "\09lock\09\09\09\0A\09xchgb\09$0,$1\09\0A", "=q,=*m,0,*m,~{memory},~{cc},~{dirflag},~{fpsr},~{flags}"(ptr elementtype(i8) %45, i8 1, ptr elementtype(i8) %45) #14, !srcloc !10
  %.not23 = icmp eq i8 %46, 0
  br i1 %.not23, label %50, label %47

47:                                               ; preds = %42
  %48 = load ptr, ptr @ProcStructLock, align 8
  %49 = tail call i32 @s_lock(ptr noundef %48, ptr noundef nonnull @.str.2, i32 noundef 924, ptr noundef nonnull @__func__.ProcKill) #14
  br label %50

50:                                               ; preds = %42, %47
  %51 = getelementptr inbounds nuw i8, ptr %44, i64 8
  %52 = load ptr, ptr %51, align 8
  %53 = icmp eq ptr %52, null
  br i1 %53, label %54, label %dlist_push_head.exit

54:                                               ; preds = %50
  store ptr %44, ptr %44, align 8
  br label %dlist_push_head.exit

dlist_push_head.exit:                             ; preds = %50, %54
  %55 = phi ptr [ %44, %54 ], [ %52, %50 ]
  %56 = getelementptr inbounds nuw i8, ptr %14, i64 8
  store ptr %55, ptr %56, align 8
  store ptr %44, ptr %14, align 8
  store ptr %14, ptr %55, align 8
  store ptr %14, ptr %51, align 8
  tail call void asm sideeffect "", "~{memory},~{dirflag},~{fpsr},~{flags}"() #14, !srcloc !13
  %57 = load ptr, ptr @ProcStructLock, align 8
  store i8 0, ptr %57, align 1
  br label %62

58:                                               ; preds = %15
  %59 = load ptr, ptr @MyProc, align 8
  %.not21 = icmp eq ptr %14, %59
  br i1 %.not21, label %62, label %60

60:                                               ; preds = %58
  %61 = getelementptr inbounds nuw i8, ptr %59, i64 792
  store ptr null, ptr %61, align 8
  br label %62

62:                                               ; preds = %58, %60, %39, %dlist_push_head.exit
  tail call void @LWLockRelease(ptr noundef %25) #14
  br label %63

63:                                               ; preds = %62, %10
  tail call void @SwitchBackToLocalLatch() #14
  tail call void @pgstat_reset_wait_event_storage() #14
  %64 = load ptr, ptr @MyProc, align 8
  store ptr null, ptr @MyProc, align 8
  store i32 -1, ptr @MyProcNumber, align 4
  %65 = getelementptr inbounds nuw i8, ptr %64, i64 36
  tail call void @DisownLatch(ptr noundef nonnull %65) #14
  %66 = getelementptr inbounds nuw i8, ptr %64, i64 60
  store i32 0, ptr %66, align 4
  %67 = getelementptr inbounds nuw i8, ptr %64, i64 68
  store i32 -1, ptr %67, align 4
  %68 = getelementptr inbounds nuw i8, ptr %64, i64 72
  store i32 0, ptr %68, align 4
  %69 = getelementptr inbounds nuw i8, ptr %64, i64 16
  %70 = load ptr, ptr %69, align 8
  %71 = load ptr, ptr @ProcStructLock, align 8
  %72 = tail call i8 asm sideeffect "\09lock\09\09\09\0A\09xchgb\09$0,$1\09\0A", "=q,=*m,0,*m,~{memory},~{cc},~{dirflag},~{fpsr},~{flags}"(ptr elementtype(i8) %71, i8 1, ptr elementtype(i8) %71) #14, !srcloc !10
  %.not24 = icmp eq i8 %72, 0
  br i1 %.not24, label %76, label %73

73:                                               ; preds = %63
  %74 = load ptr, ptr @ProcStructLock, align 8
  %75 = tail call i32 @s_lock(ptr noundef %74, ptr noundef nonnull @.str.2, i32 noundef 957, ptr noundef nonnull @__func__.ProcKill) #14
  br label %76

76:                                               ; preds = %63, %73
  %77 = getelementptr inbounds nuw i8, ptr %64, i64 792
  %78 = load ptr, ptr %77, align 8
  %79 = icmp eq ptr %78, null
  br i1 %79, label %80, label %88

80:                                               ; preds = %76
  %81 = getelementptr inbounds nuw i8, ptr %70, i64 8
  %82 = load ptr, ptr %81, align 8
  %83 = icmp eq ptr %82, null
  br i1 %83, label %84, label %dlist_push_tail.exit

84:                                               ; preds = %80
  store ptr %70, ptr %70, align 8
  store ptr %70, ptr %81, align 8
  br label %dlist_push_tail.exit

dlist_push_tail.exit:                             ; preds = %80, %84
  %85 = getelementptr inbounds nuw i8, ptr %64, i64 8
  store ptr %70, ptr %85, align 8
  %86 = load ptr, ptr %70, align 8
  store ptr %86, ptr %64, align 8
  %87 = getelementptr inbounds nuw i8, ptr %86, i64 8
  store ptr %64, ptr %87, align 8
  store ptr %64, ptr %70, align 8
  br label %88

88:                                               ; preds = %dlist_push_tail.exit, %76
  %89 = load ptr, ptr @ProcGlobal, align 8
  %90 = getelementptr inbounds nuw i8, ptr %89, i64 120
  %91 = load i32, ptr %90, align 8
  %92 = tail call i32 @update_spins_per_delay(i32 noundef %91) #14
  %93 = load ptr, ptr @ProcGlobal, align 8
  %94 = getelementptr inbounds nuw i8, ptr %93, i64 120
  store i32 %92, ptr %94, align 8
  tail call void asm sideeffect "", "~{memory},~{dirflag},~{fpsr},~{flags}"() #14, !srcloc !14
  %95 = load ptr, ptr @ProcStructLock, align 8
  store i8 0, ptr %95, align 1
  %96 = load i32, ptr @AutovacuumLauncherPid, align 4
  %.not25 = icmp eq i32 %96, 0
  br i1 %.not25, label %99, label %97

97:                                               ; preds = %88
  %98 = tail call i32 @kill(i32 noundef %96, i32 noundef 12) #14
  br label %99

99:                                               ; preds = %97, %88
  ret void
}